target datalayout = "e-m:e-p270:32:32-p271:32:32-p272:64:64-i64:64-i128:128-f80:128-n8:16:32:64-S128"
target triple = "x86_64-pc-linux-gnu"

%struct.stat = type { i64, i64, i64, i32, i32, i32, i32, i64, i64, i64, i64, %struct.timespec, %struct.timespec, %struct.timespec, [3 x i64] }
%struct.timespec = type { i64, i64 }
%struct.RelFileLocator = type { i32, i32, i32 }

@.str.1 = private unnamed_addr constant [9 x i8] c"dbsize.c\00", align 1
@InterruptPending = external global i32, align 4
@.str.16 = private unnamed_addr constant [29 x i8] c"could not stat file \22%s\22: %m\00", align 1
@.str.20 = private unnamed_addr constant [3 x i8] c"%s\00", align 1
@.str.21 = private unnamed_addr constant [6 x i8] c"%s.%u\00", align 1
@__func__.calculate_relation_size = private unnamed_addr constant [24 x i8] c"calculate_relation_size\00", align 1

; Function Attrs: nounwind uwtable
define internal i64 @calculate_relation_size(ptr noundef %0, i32 noundef %1, i32 noundef %2) #0 {
  %4 = alloca ptr, align 8
  %5 = alloca i32, align 4
  %6 = alloca i32, align 4
  %7 = alloca i64, align 8
  %8 = alloca ptr, align 8
  %9 = alloca [1024 x i8], align 16
  %10 = alloca i32, align 4
  %11 = alloca %struct.stat, align 8
  %12 = alloca i32, align 4
  store ptr %0, ptr %4, align 8
  store i32 %1, ptr %5, align 4
  store i32 %2, ptr %6, align 4
  call void @llvm.lifetime.start.p0(i64 8, ptr %7) #10
  store i64 0, ptr %7, align 8
  call void @llvm.lifetime.start.p0(i64 8, ptr %8) #10
  call void @llvm.lifetime.start.p0(i64 1024, ptr %9) #10
  call void @llvm.lifetime.start.p0(i64 4, ptr %10) #10
  store i32 0, ptr %10, align 4
  %13 = load ptr, ptr %4, align 8
  %14 = getelementptr inbounds nuw %struct.RelFileLocator, ptr %13, i32 0, i32 1
  %15 = load i32, ptr %14, align 4
  %16 = load ptr, ptr %4, align 8
  %17 = getelementptr inbounds nuw %struct.RelFileLocator, ptr %16, i32 0, i32 0
  %18 = load i32, ptr %17, align 4
  %19 = load ptr, ptr %4, align 8
  %20 = getelementptr inbounds nuw %struct.RelFileLocator, ptr %19, i32 0, i32 2
  %21 = load i32, ptr %20, align 4
  %22 = load i32, ptr %5, align 4
  %23 = load i32, ptr %6, align 4
  %24 = call ptr @GetRelationPath(i32 noundef %15, i32 noundef %18, i32 noundef %21, i32 noundef %22, i32 noundef %23)
  store ptr %24, ptr %8, align 8
  store i32 0, ptr %10, align 4
  br label %25

25:                                               ; preds = %79, %3
  call void @llvm.lifetime.start.p0(i64 144, ptr %11) #10
  br label %26

26:                                               ; preds = %25
  %27 = load volatile i32, ptr @InterruptPending, align 4
  %28 = icmp ne i32 %27, 0
  %29 = zext i1 %28 to i32
  %30 = sext i32 %29 to i64
  %31 = call i64 @llvm.expect.i64(i64 %30, i64 0)
  %32 = icmp ne i64 %31, 0
  br i1 %32, label %33, label %34

33:                                               ; preds = %26
  call void @ProcessInterrupts()
  br label %34

34:                                               ; preds = %33, %26
  br label %35

35:                                               ; preds = %34
  br label %36

36:                                               ; preds = %35
  %37 = load i32, ptr %10, align 4
  %38 = icmp eq i32 %37, 0
  br i1 %38, label %39, label %43

39:                                               ; preds = %36
  %40 = getelementptr inbounds [1024 x i8], ptr %9, i64 0, i64 0
  %41 = load ptr, ptr %8, align 8
  %42 = call i32 (ptr, i64, ptr, ...) @pg_snprintf(ptr noundef %40, i64 noundef 1024, ptr noundef @.str.20, ptr noundef %41)
  br label %48

43:                                               ; preds = %36
  %44 = getelementptr inbounds [1024 x i8], ptr %9, i64 0, i64 0
  %45 = load ptr, ptr %8, align 8
  %46 = load i32, ptr %10, align 4
  %47 = call i32 (ptr, i64, ptr, ...) @pg_snprintf(ptr noundef %44, i64 noundef 1024, ptr noundef @.str.21, ptr noundef %45, i32 noundef %46)
  br label %48

48:                                               ; preds = %43, %39
  %49 = getelementptr inbounds [1024 x i8], ptr %9, i64 0, i64 0
  %50 = call i32 @stat(ptr noundef %49, ptr noundef %11) #10
  %51 = icmp slt i32 %50, 0
  br i1 %51, label %52, label %71

52:                                               ; preds = %48
  %53 = call ptr @__errno_location() #13
  %54 = load i32, ptr %53, align 4
  %55 = icmp eq i32 %54, 2
  br i1 %55, label %56, label %57

56:                                               ; preds = %52
  store i32 2, ptr %12, align 4
  br label %76

57:                                               ; preds = %52
  br label %58

58:                                               ; preds = %57
  br i1 true, label %59, label %61

59:                                               ; preds = %58
  %60 = call zeroext i1 @errstart_cold(i32 noundef 21, ptr noundef null) #11
  br i1 %60, label %63, label %67

61:                                               ; preds = %58
  %62 = call zeroext i1 @errstart(i32 noundef 21, ptr noundef null)
  br i1 %62, label %63, label %67

63:                                               ; preds = %61, %59
  %64 = call i32 @errcode_for_file_access()
  %65 = getelementptr inbounds [1024 x i8], ptr %9, i64 0, i64 0
  %66 = call i32 (ptr, ...) @errmsg(ptr noundef @.str.16, ptr noundef %65)
  call void @errfinish(ptr noundef @.str.1, i32 noundef 355, ptr noundef @__func__.calculate_relation_size)
  br label %67

67:                                               ; preds = %63, %61, %59
  unreachable

68:                                               ; No predecessors!
  br label %69

69:                                               ; preds = %68
  br label %70

70:                                               ; preds = %69
  br label %71

71:                                               ; preds = %70, %48
  %72 = getelementptr inbounds nuw %struct.stat, ptr %11, i32 0, i32 8
  %73 = load i64, ptr %72, align 8
  %74 = load i64, ptr %7, align 8
  %75 = add i64 %74, %73
  store i64 %75, ptr %7, align 8
  store i32 0, ptr %12, align 4
  br label %76

76:                                               ; preds = %71, %56
  call void @llvm.lifetime.end.p0(i64 144, ptr %11) #10
  %77 = load i32, ptr %12, align 4
  switch i32 %77, label %84 [
    i32 0, label %78
    i32 2, label %82
  ]

78:                                               ; preds = %76
  br label %79

79:                                               ; preds = %78
  %80 = load i32, ptr %10, align 4
  %81 = add i32 %80, 1
  store i32 %81, ptr %10, align 4
  br label %25

82:                                               ; preds = %76
  %83 = load i64, ptr %7, align 8
  store i32 1, ptr %12, align 4
  call void @llvm.lifetime.end.p0(i64 4, ptr %10) #10
  call void @llvm.lifetime.end.p0(i64 1024, ptr %9) #10
  call void @llvm.lifetime.end.p0(i64 8, ptr %8) #10
  call void @llvm.lifetime.end.p0(i64 8, ptr %7) #10
  ret i64 %83

84:                                               ; preds = %76
  unreachable
}