; Function Attrs: nounwind uwtable
define internal fastcc i64 @calculate_relation_size(ptr noundef readonly captures(none) %0, i32 noundef %1, i32 noundef %2) unnamed_addr #0 {
  %4 = alloca [1024 x i8], align 16
  %5 = alloca %struct.stat, align 8
  call void @llvm.lifetime.start.p0(i64 1024, ptr nonnull %4) #9
  %6 = getelementptr inbounds nuw i8, ptr %0, i64 4
  %7 = load i32, ptr %6, align 4
  %8 = load i32, ptr %0, align 4
  %9 = getelementptr inbounds nuw i8, ptr %0, i64 8
  %10 = load i32, ptr %9, align 4
  %11 = tail call ptr @GetRelationPath(i32 noundef %7, i32 noundef %8, i32 noundef %10, i32 noundef %1, i32 noundef %2) #9
  %12 = getelementptr inbounds nuw i8, ptr %5, i64 48
  br label %13

13:                                               ; preds = %33, %3
  %.013 = phi i64 [ 0, %3 ], [ %35, %33 ]
  %.012 = phi i32 [ 0, %3 ], [ %36, %33 ]
  call void @llvm.lifetime.start.p0(i64 144, ptr nonnull %5) #9
  %14 = load volatile i32, ptr @InterruptPending, align 4
  %.not = icmp eq i32 %14, 0
  br i1 %.not, label %16, label %15, !prof !4

15:                                               ; preds = %13
  call void @ProcessInterrupts() #9
  br label %16

16:                                               ; preds = %15, %13
  %17 = icmp eq i32 %.012, 0
  br i1 %17, label %18, label %20

18:                                               ; preds = %16
  %19 = call i32 (ptr, i64, ptr, ...) @pg_snprintf(ptr noundef nonnull %4, i64 noundef 1024, ptr noundef nonnull @.str.20, ptr noundef %11) #9
  br label %22

20:                                               ; preds = %16
  %21 = call i32 (ptr, i64, ptr, ...) @pg_snprintf(ptr noundef nonnull %4, i64 noundef 1024, ptr noundef nonnull @.str.21, ptr noundef %11, i32 noundef %.012) #9
  br label %22

22:                                               ; preds = %20, %18
  %23 = call i32 @stat(ptr noundef nonnull %4, ptr noundef nonnull %5) #9
  %24 = icmp slt i32 %23, 0
  br i1 %24, label %25, label %33

25:                                               ; preds = %22
  %26 = tail call ptr @__errno_location() #11
  %27 = load i32, ptr %26, align 4
  %28 = icmp eq i32 %27, 2
  br i1 %28, label %37, label %29

29:                                               ; preds = %25
  %30 = call zeroext i1 @errstart_cold(i32 noundef 21, ptr noundef null) #10
  call void @llvm.assume(i1 %30)
  %31 = call i32 @errcode_for_file_access() #9
  %32 = call i32 (ptr, ...) @errmsg(ptr noundef nonnull @.str.16, ptr noundef nonnull %4) #9
  call void @errfinish(ptr noundef nonnull @.str.1, i32 noundef 355, ptr noundef nonnull @__func__.calculate_relation_size) #9
  unreachable

33:                                               ; preds = %22
  %34 = load i64, ptr %12, align 8
  %35 = add i64 %34, %.013
  call void @llvm.lifetime.end.p0(i64 144, ptr nonnull %5) #9
  %36 = add i32 %.012, 1
  br label %13

37:                                               ; preds = %25
  call void @llvm.lifetime.end.p0(i64 144, ptr nonnull %5) #9
  call void @llvm.lifetime.end.p0(i64 1024, ptr nonnull %4) #9
  ret i64 %.013
}